Certificate:
    Data:
        Version: 3 (0x2)
        Serial Number: 2 (0x2)
    Signature Algorithm: sha256WithRSAEncryption
        Issuer: CN=USC Software, ST=Louisiana, C=US/emailAddress=software@uscomputers.com, O=U.S. Computer Corporation, OU=Software
        Validity
            Not Before: Oct 30 19:44:52 2017 GMT
            Not After : Oct 29 19:44:52 2022 GMT
        Subject: CN=localhost, ST=Louisiana, C=US/emailAddress=software@uscomputers.com, O=U.S. Computer Corporation, OU=Software
        Subject Public Key Info:
            Public Key Algorithm: rsaEncryption
                Public-Key: (2048 bit)
                Modulus:
                    00:a0:a8:81:7a:3f:da:4b:33:04:dc:76:6c:95:ea:
                    df:0e:ef:69:41:e1:b4:aa:1d:12:3d:22:3e:c5:ec:
                    ec:43:1a:ec:a1:6c:88:69:57:2d:b4:19:67:9c:f9:
                    cd:8e:94:2d:ab:cf:08:b9:0b:40:d1:a0:c1:e1:d4:
                    2f:fc:02:cb:8b:a5:bc:c4:71:fc:0a:7c:1a:8a:bb:
                    27:8b:40:4c:d6:94:8e:fb:b8:29:3c:83:64:4d:c3:
                    b0:4e:3e:a0:91:90:8d:5b:53:38:fa:c2:3c:36:ae:
                    d8:b9:8b:62:25:88:89:7b:b3:f6:76:01:7f:fd:e1:
                    b9:0d:e2:66:86:8f:ea:d7:eb:39:6f:a4:97:4b:c4:
                    8b:78:5b:25:4d:fc:f2:e7:1b:2d:8b:7a:28:f2:84:
                    9b:fe:2d:18:8c:24:84:1b:d9:21:5a:02:23:9e:56:
                    d5:e2:b9:b6:f2:17:ca:43:4c:f3:53:b0:c2:07:52:
                    4e:a8:1e:c5:a2:09:8f:7b:67:56:a4:7d:57:5d:69:
                    c1:d5:3d:15:df:d0:b6:64:49:fb:7a:06:2e:96:3c:
                    73:57:4a:72:28:07:38:2e:78:d5:3e:f3:80:ea:c2:
                    70:47:6e:3f:68:0d:17:90:4b:6e:15:ba:08:cd:84:
                    6e:6b:13:31:83:e0:75:8c:0a:80:bc:ca:2d:00:f9:
                    cb:af
                Exponent: 65537 (0x10001)
        X509v3 extensions:
            X509v3 Basic Constraints: 
                CA:FALSE
            X509v3 Key Usage: 
                Digital Signature, Non Repudiation, Key Encipherment
            X509v3 Subject Alternative Name: 
                DNS:localhost, IP Address:127.0.0.1
    Signature Algorithm: sha256WithRSAEncryption
         62:e8:55:d7:de:9d:d5:eb:2a:5c:59:6d:17:28:ec:09:41:20:
         15:4e:09:85:79:0e:7f:e5:c2:e8:92:4b:c3:71:a7:f3:38:cb:
         73:c8:96:0b:1c:19:32:9c:e4:48:7d:1d:6b:60:64:30:be:70:
         f2:a9:78:d4:71:44:75:d0:2e:10:27:49:9f:8d:ca:76:56:df:
         1b:8a:da:28:01:b6:89:65:85:cd:f4:56:64:73:d8:d2:a8:44:
         9a:c3:59:61:89:a6:60:76:12:24:5a:ec:82:1b:1e:51:fc:de:
         39:05:9d:20:f5:6e:d5:cb:69:12:ab:7f:45:8f:f0:75:8f:49:
         e8:22:a5:87:44:39:fc:52:2c:35:b6:c6:1c:10:22:62:49:97:
         6e:bb:f1:b4:7c:eb:3c:6c:9d:23:1d:e8:d5:ef:7c:f5:c7:7c:
         7b:3e:3a:f0:f7:09:2a:7f:95:7b:f2:53:88:a7:ab:8f:c8:7a:
         dd:da:ec:f0:b2:c1:cb:b8:f4:96:9f:8e:c9:33:a4:e7:79:51:
         c4:c2:e8:bb:fd:6e:7c:b1:25:82:b7:da:08:e7:86:17:97:c7:
         26:81:fe:09:5d:da:9a:1e:90:62:73:d4:e0:1f:36:3a:58:9f:
         5d:ac:75:d4:05:90:ac:e2:36:ff:c8:9a:cc:6d:32:71:43:45:
         8f:00:57:e5
-----BEGIN CERTIFICATE-----
MIID4DCCAsigAwIBAgIBAjANBgkqhkiG9w0BAQsFADCBmDEVMBMGA1UEAwwMVVND
IFNvZnR3YXJlMRIwEAYDVQQIDAlMb3Vpc2lhbmExCzAJBgNVBAYTAlVTMScwJQYJ
KoZIhvcNAQkBFhhzb2Z0d2FyZUB1c2NvbXB1dGVycy5jb20xIjAgBgNVBAoMGVUu
Uy4gQ29tcHV0ZXIgQ29ycG9yYXRpb24xETAPBgNVBAsMCFNvZnR3YXJlMB4XDTE3
MTAzMDE5NDQ1MloXDTIyMTAyOTE5NDQ1MlowgZUxEjAQBgNVBAMMCWxvY2FsaG9z
dDESMBAGA1UECAwJTG91aXNpYW5hMQswCQYDVQQGEwJVUzEnMCUGCSqGSIb3DQEJ
ARYYc29mdHdhcmVAdXNjb21wdXRlcnMuY29tMSIwIAYDVQQKDBlVLlMuIENvbXB1
dGVyIENvcnBvcmF0aW9uMREwDwYDVQQLDAhTb2Z0d2FyZTCCASIwDQYJKoZIhvcN
AQEBBQADggEPADCCAQoCggEBAKCogXo/2kszBNx2bJXq3w7vaUHhtKodEj0iPsXs
7EMa7KFsiGlXLbQZZ5z5zY6ULavPCLkLQNGgweHUL/wCy4ulvMRx/Ap8Goq7J4tA
TNaUjvu4KTyDZE3DsE4+oJGQjVtTOPrCPDau2LmLYiWIiXuz9nYBf/3huQ3iZoaP
6tfrOW+kl0vEi3hbJU388ucbLYt6KPKEm/4tGIwkhBvZIVoCI55W1eK5tvIXykNM
81OwwgdSTqgexaIJj3tnVqR9V11pwdU9Fd/QtmRJ+3oGLpY8c1dKcigHOC541T7z
gOrCcEduP2gNF5BLbhW6CM2EbmsTMYPgdYwKgLzKLQD5y68CAwEAAaM2MDQwCQYD
VR0TBAIwADALBgNVHQ8EBAMCBeAwGgYDVR0RBBMwEYIJbG9jYWxob3N0hwR/AAAB
MA0GCSqGSIb3DQEBCwUAA4IBAQBi6FXX3p3V6ypcWW0XKOwJQSAVTgmFeQ5/5cLo
kkvDcafzOMtzyJYLHBkynORIfR1rYGQwvnDyqXjUcUR10C4QJ0mfjcp2Vt8bitoo
AbaJZYXN9FZkc9jSqESaw1lhiaZgdhIkWuyCGx5R/N45BZ0g9W7Vy2kSq39Fj/B1
j0noIqWHRDn8Uiw1tsYcECJiSZduu/G0fOs8bJ0jHejV73z1x3x7Pjrw9wkqf5V7
8lOIp6uPyHrd2uzwssHLuPSWn47JM6TneVHEwui7/W58sSWCt9oI54YXl8cmgf4J
XdqaHpBic9TgHzY6WJ9drHXUBZCs4jb/yJrMbTJxQ0WPAFfl
-----END CERTIFICATE-----
